; ModuleID = 'source-C-CXX/44/609.c'
source_filename = "source-C-CXX/44/609.c"
target datalayout = "e-m:e-p270:32:32-p271:32:32-p272:64:64-i64:64-f80:128-n8:16:32:64-S128"
target triple = "x86_64-pc-linux-gnu"

@.str = private unnamed_addr constant [6 x i8] c"%s %s\00", align 1
@.str.1 = private unnamed_addr constant [3 x i8] c"%d\00", align 1

; Function Attrs: nofree nounwind sspstrong uwtable
define dso_local i32 @main() local_unnamed_addr #0 {
  %1 = alloca [50 x i8], align 16
  %2 = alloca [50 x i8], align 16
  %3 = getelementptr inbounds [50 x i8], [50 x i8]* %1, i64 0, i64 0
  call void @llvm.lifetime.start.p0i8(i64 50, i8* nonnull %3) #4
  %4 = getelementptr inbounds [50 x i8], [50 x i8]* %2, i64 0, i64 0
  call void @llvm.lifetime.start.p0i8(i64 50, i8* nonnull %4) #4
  %5 = call i32 (i8*, ...) @__isoc99_scanf(i8* getelementptr inbounds ([6 x i8], [6 x i8]* @.str, i64 0, i64 0), i8* nonnull %3, i8* nonnull %4)
  %6 = call i64 @strlen(i8* noundef nonnull %3) #5
  %7 = trunc i64 %6 to i32
  %8 = call i64 @strlen(i8* noundef nonnull %4) #5
  %9 = trunc i64 %8 to i32
  %10 = icmp sgt i32 %9, 0
  %11 = icmp sgt i32 %7, 1
  %12 = select i1 %10, i1 %11, i1 false
  br i1 %12, label %13, label %46

13:                                               ; preds = %0
  %14 = and i64 %8, 4294967295
  %15 = and i64 %6, 4294967295
  br label %16

16:                                               ; preds = %13, %42
  %17 = phi i64 [ 0, %13 ], [ %44, %42 ]
  %18 = phi i32 [ 1, %13 ], [ %43, %42 ]
  %19 = getelementptr inbounds [50 x i8], [50 x i8]* %2, i64 0, i64 %17
  %20 = load i8, i8* %19, align 1, !tbaa !5
  %21 = load i8, i8* %3, align 16, !tbaa !5
  %22 = icmp eq i8 %20, %21
  br i1 %22, label %25, label %42

23:                                               ; preds = %25
  %24 = icmp eq i64 %38, %15
  br i1 %24, label %42, label %25, !llvm.loop !8

25:                                               ; preds = %16, %23
  %26 = phi i64 [ %38, %23 ], [ 1, %16 ]
  %27 = phi i64 [ %29, %23 ], [ %17, %16 ]
  %28 = phi i32 [ %36, %23 ], [ %18, %16 ]
  %29 = add nuw nsw i64 %27, 1
  %30 = getelementptr inbounds [50 x i8], [50 x i8]* %2, i64 0, i64 %29
  %31 = load i8, i8* %30, align 1, !tbaa !5
  %32 = getelementptr inbounds [50 x i8], [50 x i8]* %1, i64 0, i64 %26
  %33 = load i8, i8* %32, align 1, !tbaa !5
  %34 = icmp eq i8 %31, %33
  %35 = zext i1 %34 to i32
  %36 = add nsw i32 %28, %35
  %37 = icmp eq i32 %36, %7
  %38 = add nuw nsw i64 %26, 1
  br i1 %37, label %39, label %23

39:                                               ; preds = %25
  %40 = trunc i64 %17 to i32
  %41 = call i32 (i8*, ...) @printf(i8* nonnull dereferenceable(1) getelementptr inbounds ([3 x i8], [3 x i8]* @.str.1, i64 0, i64 0), i32 %40)
  br label %42

42:                                               ; preds = %23, %39, %16
  %43 = phi i32 [ %7, %39 ], [ %18, %16 ], [ %36, %23 ]
  %44 = add nuw nsw i64 %17, 1
  %45 = icmp eq i64 %44, %14
  br i1 %45, label %46, label %16, !llvm.loop !10

46:                                               ; preds = %42, %0
  call void @llvm.lifetime.end.p0i8(i64 50, i8* nonnull %4) #4
  call void @llvm.lifetime.end.p0i8(i64 50, i8* nonnull %3) #4
  ret i32 0
}

; Function Attrs: argmemonly mustprogress nofree nosync nounwind willreturn
declare void @llvm.lifetime.start.p0i8(i64 immarg, i8* nocapture) #1

; Function Attrs: nofree nounwind
declare noundef i32 @__isoc99_scanf(i8* nocapture noundef readonly, ...) local_unnamed_addr #2

; Function Attrs: argmemonly mustprogress nofree nounwind readonly willreturn
declare i64 @strlen(i8* nocapture) local_unnamed_addr #3

; Function Attrs: nofree nounwind
declare noundef i32 @printf(i8* nocapture noundef readonly, ...) local_unnamed_addr #2

; Function Attrs: argmemonly mustprogress nofree nosync nounwind willreturn
declare void @llvm.lifetime.end.p0i8(i64 immarg, i8* nocapture) #1


!llvm.module.flags = !{!0, !1, !2, !3}
!llvm.ident = !{!4}

!0 = !{i32 1, !"wchar_size", i32 4}
!1 = !{i32 7, !"PIC Level", i32 2}
!2 = !{i32 7, !"PIE Level", i32 2}
!3 = !{i32 7, !"uwtable", i32 1}
!4 = !{!"clang version 13.0.0"}
!5 = !{!6, !6, i64 0}
!6 = !{!"omnipotent char", !7, i64 0}
!7 = !{!"Simple C/C++ TBAA"}
!8 = distinct !{!8, !9}
!9 = !{!"llvm.loop.mustprogress"}
!10 = distinct !{!10, !9}
